target datalayout = "e-m:e-p270:32:32-p271:32:32-p272:64:64-i64:64-i128:128-f80:128-n8:16:32:64-S128"
target triple = "x86_64-pc-linux-gnu"

%struct.mi_commit_mask_s = type { [16 x i64] }
%struct.mi_heap_s = type { ptr, [129 x ptr], [75 x %struct.mi_page_queue_s], ptr, i64, i64, [2 x i64], %struct.mi_random_cxt_s, i64, i64, i64, ptr, i8 }
%struct.mi_page_queue_s = type { ptr, ptr, i64 }
%struct.mi_random_cxt_s = type { [16 x i32], [16 x i32], i32 }
%struct.mi_segment_s = type { i64, i8, i8, i8, i8, i64, %struct.mi_commit_mask_s, %struct.mi_commit_mask_s, ptr, ptr, i64, i64, i64, i64, i64, i64, i32, i64, i64, [1024 x %struct.mi_page_s] }
%struct.mi_page_s = type { i32, i32, i8, i16, i16, %union.mi_page_flags_s, i8, ptr, i32, i32, ptr, i64, i64, ptr, ptr, [1 x i64] }
%union.mi_page_flags_s = type { i8 }

@mi_segment_map = internal global [5121 x i64] zeroinitializer, align 16
@_mi_heap_main = external global %struct.mi_heap_s, align 8

; Function Attrs: inlinehint nounwind uwtable
define internal i64 @mi_clz(i64 noundef %0) #2 {
  %2 = alloca i64, align 8
  %3 = alloca i64, align 8
  store i64 %0, ptr %3, align 8, !tbaa !3
  %4 = load i64, ptr %3, align 8, !tbaa !3
  %5 = icmp eq i64 %4, 0
  br i1 %5, label %6, label %7

6:                                                ; preds = %1
  store i64 64, ptr %2, align 8
  br label %12

7:                                                ; preds = %1
  %8 = load i64, ptr %3, align 8, !tbaa !3
  %9 = call i64 @llvm.ctlz.i64(i64 %8, i1 true)
  %10 = trunc i64 %9 to i32
  %11 = sext i32 %10 to i64
  store i64 %11, ptr %2, align 8
  br label %12

12:                                               ; preds = %7, %6
  %13 = load i64, ptr %2, align 8
  ret i64 %13
}

; Function Attrs: inlinehint nounwind uwtable
define internal i64 @mi_segment_size(ptr noundef %0) #2 {
  %2 = alloca ptr, align 8
  store ptr %0, ptr %2, align 8, !tbaa !41
  %3 = load ptr, ptr %2, align 8, !tbaa !41
  %4 = getelementptr inbounds nuw %struct.mi_segment_s, ptr %3, i32 0, i32 14
  %5 = load i64, ptr %4, align 8, !tbaa !54
  %6 = mul i64 %5, 65536
  ret i64 %6
}

; Function Attrs: inlinehint nounwind uwtable
define internal i64 @_mi_ptr_cookie(ptr noundef %0) #2 {
  %2 = alloca ptr, align 8
  store ptr %0, ptr %2, align 8, !tbaa !27
  %3 = load ptr, ptr %2, align 8, !tbaa !27
  %4 = ptrtoint ptr %3 to i64
  %5 = load i64, ptr getelementptr inbounds nuw (%struct.mi_heap_s, ptr @_mi_heap_main, i32 0, i32 5), align 8, !tbaa !49
  %6 = xor i64 %4, %5
  ret i64 %6
}

; Function Attrs: inlinehint nounwind uwtable
define internal i64 @mi_bsr(i64 noundef %0) #2 {
  %2 = alloca i64, align 8
  store i64 %0, ptr %2, align 8, !tbaa !3
  %3 = load i64, ptr %2, align 8, !tbaa !3
  %4 = icmp eq i64 %3, 0
  br i1 %4, label %5, label %6

5:                                                ; preds = %1
  br label %10

6:                                                ; preds = %1
  %7 = load i64, ptr %2, align 8, !tbaa !3
  %8 = call i64 @mi_clz(i64 noundef %7)
  %9 = sub i64 63, %8
  br label %10

10:                                               ; preds = %6, %5
  %11 = phi i64 [ 64, %5 ], [ %9, %6 ]
  ret i64 %11
}

; Function Attrs: nounwind uwtable
define internal i64 @mi_segment_map_index_of(ptr noundef %0, ptr noundef %1) #5 {
  %3 = alloca i64, align 8
  %4 = alloca ptr, align 8
  %5 = alloca ptr, align 8
  %6 = alloca i64, align 8
  %7 = alloca i64, align 8
  store ptr %0, ptr %4, align 8, !tbaa !41
  store ptr %1, ptr %5, align 8, !tbaa !12
  %8 = load ptr, ptr %4, align 8, !tbaa !41
  %9 = ptrtoint ptr %8 to i64
  %10 = icmp uge i64 %9, 21990232555520
  br i1 %10, label %11, label %13

11:                                               ; preds = %2
  %12 = load ptr, ptr %5, align 8, !tbaa !12
  store i64 0, ptr %12, align 8, !tbaa !3
  store i64 5120, ptr %3, align 8
  br label %23

13:                                               ; preds = %2
  call void @llvm.lifetime.start.p0(i64 8, ptr %6) #8
  %14 = load ptr, ptr %4, align 8, !tbaa !41
  %15 = ptrtoint ptr %14 to i64
  %16 = udiv i64 %15, 67108864
  store i64 %16, ptr %6, align 8, !tbaa !3
  %17 = load i64, ptr %6, align 8, !tbaa !3
  %18 = urem i64 %17, 64
  %19 = load ptr, ptr %5, align 8, !tbaa !12
  store i64 %18, ptr %19, align 8, !tbaa !3
  call void @llvm.lifetime.start.p0(i64 8, ptr %7) #8
  %20 = load i64, ptr %6, align 8, !tbaa !3
  %21 = udiv i64 %20, 64
  store i64 %21, ptr %7, align 8, !tbaa !3
  %22 = load i64, ptr %7, align 8, !tbaa !3
  store i64 %22, ptr %3, align 8
  call void @llvm.lifetime.end.p0(i64 8, ptr %7) #8
  call void @llvm.lifetime.end.p0(i64 8, ptr %6) #8
  br label %23

23:                                               ; preds = %13, %11
  %24 = load i64, ptr %3, align 8
  ret i64 %24
}

; Function Attrs: inlinehint nounwind uwtable
define internal ptr @_mi_ptr_segment(ptr noundef %0) #2 {
  %2 = alloca ptr, align 8
  store ptr %0, ptr %2, align 8, !tbaa !27
  %3 = load ptr, ptr %2, align 8, !tbaa !27
  %4 = ptrtoint ptr %3 to i64
  %5 = and i64 %4, -67108864
  %6 = inttoptr i64 %5 to ptr
  ret ptr %6
}

; Function Attrs: nounwind uwtable
define internal ptr @_mi_segment_of(ptr noundef %0) #5 {
  %2 = alloca ptr, align 8
  %3 = alloca ptr, align 8
  %4 = alloca ptr, align 8
  %5 = alloca i32, align 4
  %6 = alloca i64, align 8
  %7 = alloca i64, align 8
  %8 = alloca i64, align 8
  %9 = alloca i64, align 8
  %10 = alloca i64, align 8
  %11 = alloca i64, align 8
  %12 = alloca i64, align 8
  %13 = alloca i64, align 8
  %14 = alloca i64, align 8
  %15 = alloca i64, align 8
  %16 = alloca i8, align 1
  store ptr %0, ptr %3, align 8, !tbaa !27
  call void @llvm.lifetime.start.p0(i64 8, ptr %4) #8
  %17 = load ptr, ptr %3, align 8, !tbaa !27
  %18 = call ptr @_mi_ptr_segment(ptr noundef %17)
  store ptr %18, ptr %4, align 8, !tbaa !41
  %19 = load ptr, ptr %4, align 8, !tbaa !41
  %20 = icmp eq ptr %19, null
  br i1 %20, label %21, label %22

21:                                               ; preds = %1
  store ptr null, ptr %2, align 8
  store i32 1, ptr %5, align 4
  br label %140

22:                                               ; preds = %1
  call void @llvm.lifetime.start.p0(i64 8, ptr %6) #8
  call void @llvm.lifetime.start.p0(i64 8, ptr %7) #8
  %23 = load ptr, ptr %4, align 8, !tbaa !41
  %24 = call i64 @mi_segment_map_index_of(ptr noundef %23, ptr noundef %6)
  store i64 %24, ptr %7, align 8, !tbaa !3
  call void @llvm.lifetime.start.p0(i64 8, ptr %8) #8
  %25 = load i64, ptr %7, align 8, !tbaa !3
  %26 = getelementptr inbounds nuw [5121 x i64], ptr @mi_segment_map, i64 0, i64 %25
  %27 = load atomic i64, ptr %26 monotonic, align 8
  store i64 %27, ptr %9, align 8
  %28 = load i64, ptr %9, align 8, !tbaa !3
  store i64 %28, ptr %8, align 8, !tbaa !3
  %29 = load i64, ptr %8, align 8, !tbaa !3
  %30 = load i64, ptr %6, align 8, !tbaa !3
  %31 = shl i64 1, %30
  %32 = and i64 %29, %31
  %33 = icmp ne i64 %32, 0
  %34 = xor i1 %33, true
  %35 = xor i1 %34, true
  %36 = zext i1 %35 to i32
  %37 = sext i32 %36 to i64
  %38 = call i64 @llvm.expect.i64(i64 %37, i64 1)
  %39 = icmp ne i64 %38, 0
  br i1 %39, label %40, label %42

40:                                               ; preds = %22
  %41 = load ptr, ptr %4, align 8, !tbaa !41
  store ptr %41, ptr %2, align 8
  store i32 1, ptr %5, align 4
  br label %139

42:                                               ; preds = %22
  %43 = load i64, ptr %7, align 8, !tbaa !3
  %44 = icmp eq i64 %43, 5120
  br i1 %44, label %45, label %46

45:                                               ; preds = %42
  store ptr null, ptr %2, align 8
  store i32 1, ptr %5, align 4
  br label %139

46:                                               ; preds = %42
  call void @llvm.lifetime.start.p0(i64 8, ptr %10) #8
  call void @llvm.lifetime.start.p0(i64 8, ptr %11) #8
  call void @llvm.lifetime.start.p0(i64 8, ptr %12) #8
  %47 = load i64, ptr %8, align 8, !tbaa !3
  %48 = load i64, ptr %6, align 8, !tbaa !3
  %49 = shl i64 1, %48
  %50 = sub i64 %49, 1
  %51 = and i64 %47, %50
  store i64 %51, ptr %12, align 8, !tbaa !3
  %52 = load i64, ptr %12, align 8, !tbaa !3
  %53 = icmp ne i64 %52, 0
  br i1 %53, label %54, label %58

54:                                               ; preds = %46
  %55 = load i64, ptr %7, align 8, !tbaa !3
  store i64 %55, ptr %11, align 8, !tbaa !3
  %56 = load i64, ptr %12, align 8, !tbaa !3
  %57 = call i64 @mi_bsr(i64 noundef %56)
  store i64 %57, ptr %10, align 8, !tbaa !3
  br label %91

58:                                               ; preds = %46
  %59 = load i64, ptr %7, align 8, !tbaa !3
  %60 = icmp eq i64 %59, 0
  br i1 %60, label %61, label %62

61:                                               ; preds = %58
  store ptr null, ptr %2, align 8
  store i32 1, ptr %5, align 4
  br label %138

62:                                               ; preds = %58
  call void @llvm.lifetime.start.p0(i64 8, ptr %13) #8
  %63 = load i64, ptr %8, align 8, !tbaa !3
  store i64 %63, ptr %13, align 8, !tbaa !3
  %64 = load i64, ptr %7, align 8, !tbaa !3
  store i64 %64, ptr %11, align 8, !tbaa !3
  br label %65

65:                                               ; preds = %78, %62
  %66 = load i64, ptr %11, align 8, !tbaa !3
  %67 = add i64 %66, -1
  store i64 %67, ptr %11, align 8, !tbaa !3
  %68 = load i64, ptr %11, align 8, !tbaa !3
  %69 = getelementptr inbounds nuw [5121 x i64], ptr @mi_segment_map, i64 0, i64 %68
  %70 = load atomic i64, ptr %69 monotonic, align 8
  store i64 %70, ptr %14, align 8
  %71 = load i64, ptr %14, align 8, !tbaa !3
  store i64 %71, ptr %13, align 8, !tbaa !3
  br label %72

72:                                               ; preds = %65
  %73 = load i64, ptr %13, align 8, !tbaa !3
  %74 = icmp ne i64 %73, 0
  br i1 %74, label %75, label %78

75:                                               ; preds = %72
  %76 = load i64, ptr %11, align 8, !tbaa !3
  %77 = icmp ugt i64 %76, 0
  br label %78

78:                                               ; preds = %75, %72
  %79 = phi i1 [ false, %72 ], [ %77, %75 ]
  br i1 %79, label %65, label %80, !llvm.loop !46

80:                                               ; preds = %78
  %81 = load i64, ptr %13, align 8, !tbaa !3
  %82 = icmp eq i64 %81, 0
  br i1 %82, label %83, label %84

83:                                               ; preds = %80
  store ptr null, ptr %2, align 8
  store i32 1, ptr %5, align 4
  br label %87

84:                                               ; preds = %80
  %85 = load i64, ptr %13, align 8, !tbaa !3
  %86 = call i64 @mi_bsr(i64 noundef %85)
  store i64 %86, ptr %10, align 8, !tbaa !3
  store i32 0, ptr %5, align 4
  br label %87

87:                                               ; preds = %84, %83
  call void @llvm.lifetime.end.p0(i64 8, ptr %13) #8
  %88 = load i32, ptr %5, align 4
  switch i32 %88, label %138 [
    i32 0, label %89
  ]

89:                                               ; preds = %87
  br label %90

90:                                               ; preds = %89
  br label %91

91:                                               ; preds = %90, %54
  call void @llvm.lifetime.start.p0(i64 8, ptr %15) #8
  %92 = load i64, ptr %7, align 8, !tbaa !3
  %93 = load i64, ptr %11, align 8, !tbaa !3
  %94 = sub i64 %92, %93
  %95 = mul i64 %94, 64
  %96 = load i64, ptr %6, align 8, !tbaa !3
  %97 = add i64 %95, %96
  %98 = load i64, ptr %10, align 8, !tbaa !3
  %99 = sub i64 %97, %98
  %100 = mul i64 %99, 67108864
  store i64 %100, ptr %15, align 8, !tbaa !3
  %101 = load ptr, ptr %4, align 8, !tbaa !41
  %102 = load i64, ptr %15, align 8, !tbaa !3
  %103 = sub i64 0, %102
  %104 = getelementptr inbounds i8, ptr %101, i64 %103
  store ptr %104, ptr %4, align 8, !tbaa !41
  %105 = load ptr, ptr %4, align 8, !tbaa !41
  %106 = icmp eq ptr %105, null
  br i1 %106, label %107, label %108

107:                                              ; preds = %91
  store ptr null, ptr %2, align 8
  store i32 1, ptr %5, align 4
  br label %137

108:                                              ; preds = %91
  call void @llvm.lifetime.start.p0(i64 1, ptr %16) #8
  %109 = load ptr, ptr %4, align 8, !tbaa !41
  %110 = call i64 @_mi_ptr_cookie(ptr noundef %109)
  %111 = load ptr, ptr %4, align 8, !tbaa !41
  %112 = getelementptr inbounds nuw %struct.mi_segment_s, ptr %111, i32 0, i32 13
  %113 = load i64, ptr %112, align 8, !tbaa !47
  %114 = icmp eq i64 %110, %113
  %115 = zext i1 %114 to i8
  store i8 %115, ptr %16, align 1, !tbaa !18
  %116 = load i8, ptr %16, align 1, !tbaa !18, !range !20, !noundef !21
  %117 = trunc i8 %116 to i1
  %118 = xor i1 %117, true
  %119 = xor i1 %118, true
  %120 = xor i1 %119, true
  %121 = zext i1 %120 to i32
  %122 = sext i32 %121 to i64
  %123 = call i64 @llvm.expect.i64(i64 %122, i64 0)
  %124 = icmp ne i64 %123, 0
  br i1 %124, label %125, label %126

125:                                              ; preds = %108
  store ptr null, ptr %2, align 8
  store i32 1, ptr %5, align 4
  br label %136

126:                                              ; preds = %108
  %127 = load ptr, ptr %4, align 8, !tbaa !41
  %128 = load ptr, ptr %4, align 8, !tbaa !41
  %129 = call i64 @mi_segment_size(ptr noundef %128)
  %130 = getelementptr inbounds nuw i8, ptr %127, i64 %129
  %131 = load ptr, ptr %3, align 8, !tbaa !27
  %132 = icmp ule ptr %130, %131
  br i1 %132, label %133, label %134

133:                                              ; preds = %126
  store ptr null, ptr %2, align 8
  store i32 1, ptr %5, align 4
  br label %136

134:                                              ; preds = %126
  %135 = load ptr, ptr %4, align 8, !tbaa !41
  store ptr %135, ptr %2, align 8
  store i32 1, ptr %5, align 4
  br label %136

136:                                              ; preds = %134, %133, %125
  call void @llvm.lifetime.end.p0(i64 1, ptr %16) #8
  br label %137

137:                                              ; preds = %136, %107
  call void @llvm.lifetime.end.p0(i64 8, ptr %15) #8
  br label %138

138:                                              ; preds = %137, %87, %61
  call void @llvm.lifetime.end.p0(i64 8, ptr %12) #8
  call void @llvm.lifetime.end.p0(i64 8, ptr %11) #8
  call void @llvm.lifetime.end.p0(i64 8, ptr %10) #8
  br label %139

139:                                              ; preds = %138, %45, %40
  call void @llvm.lifetime.end.p0(i64 8, ptr %8) #8
  call void @llvm.lifetime.end.p0(i64 8, ptr %7) #8
  call void @llvm.lifetime.end.p0(i64 8, ptr %6) #8
  br label %140

140:                                              ; preds = %139, %21
  call void @llvm.lifetime.end.p0(i64 8, ptr %4) #8
  %141 = load ptr, ptr %2, align 8
  ret ptr %141
}

; Function Attrs: nounwind uwtable
define internal zeroext i1 @mi_is_valid_pointer(ptr noundef %0) #5 {
  %2 = alloca ptr, align 8
  store ptr %0, ptr %2, align 8, !tbaa !27
  %3 = load ptr, ptr %2, align 8, !tbaa !27
  %4 = call ptr @_mi_segment_of(ptr noundef %3)
  %5 = icmp ne ptr %4, null
  ret i1 %5
}

; Function Attrs: nounwind uwtable
define hidden zeroext i1 @mi_is_in_heap_region(ptr noundef %0) #5 {
  %2 = alloca ptr, align 8
  store ptr %0, ptr %2, align 8, !tbaa !27
  %3 = load ptr, ptr %2, align 8, !tbaa !27
  %4 = call zeroext i1 @mi_is_valid_pointer(ptr noundef %3)
  ret i1 %4
}