; Function Attrs: nofree norecurse nounwind memory(readwrite, argmem: read, inaccessiblemem: none) uwtable
define hidden zeroext i1 @mi_is_in_heap_region(ptr noundef %0) local_unnamed_addr #6 {
  %2 = ptrtoint ptr %0 to i64
  %3 = and i64 %2, -67108864
  %4 = inttoptr i64 %3 to ptr
  %5 = icmp eq i64 %3, 0
  br i1 %5, label %mi_is_valid_pointer.exit, label %6

6:                                                ; preds = %1
  %7 = icmp ugt ptr %0, inttoptr (i64 21990232555519 to ptr)
  %8 = lshr i64 %2, 26
  %9 = and i64 %8, 63
  %10 = lshr i64 %2, 32
  %.sink.i.i.i = select i1 %7, i64 0, i64 %9
  %.0.i.i.i = select i1 %7, i64 5120, i64 %10
  %11 = getelementptr inbounds nuw [5121 x i64], ptr @mi_segment_map, i64 0, i64 %.0.i.i.i
  %12 = load atomic i64, ptr %11 monotonic, align 8
  %13 = shl nuw i64 1, %.sink.i.i.i
  %14 = and i64 %12, %13
  %.not.i.i = icmp eq i64 %14, 0
  br i1 %.not.i.i, label %15, label %mi_is_valid_pointer.exit, !prof !4

15:                                               ; preds = %6
  %16 = icmp eq i64 %.0.i.i.i, 5120
  br i1 %16, label %mi_is_valid_pointer.exit, label %17

17:                                               ; preds = %15
  %18 = add i64 %13, -1
  %19 = and i64 %12, %18
  %.not45.i.i = icmp eq i64 %19, 0
  br i1 %.not45.i.i, label %20, label %29

20:                                               ; preds = %17
  %21 = icmp eq i64 %.0.i.i.i, 0
  br i1 %21, label %mi_is_valid_pointer.exit, label %.preheader.i.i

.preheader.i.i:                                   ; preds = %20, %.preheader.i.i
  %.140.i.i = phi i64 [ %22, %.preheader.i.i ], [ %.0.i.i.i, %20 ]
  %22 = add nsw i64 %.140.i.i, -1
  %23 = getelementptr inbounds nuw [5121 x i64], ptr @mi_segment_map, i64 0, i64 %22
  %24 = load atomic i64, ptr %23 monotonic, align 8
  %25 = icmp ne i64 %24, 0
  %26 = icmp ne i64 %22, 0
  %27 = and i1 %25, %26
  br i1 %27, label %.preheader.i.i, label %28, !llvm.loop !31

28:                                               ; preds = %.preheader.i.i
  %.not46.i.i = icmp eq i64 %24, 0
  br i1 %.not46.i.i, label %mi_is_valid_pointer.exit, label %29

29:                                               ; preds = %28, %17
  %.lcssa.sink.i.i = phi i64 [ %19, %17 ], [ %24, %28 ]
  %.039.i.i = phi i64 [ %.0.i.i.i, %17 ], [ %22, %28 ]
  %30 = tail call range(i64 0, 64) i64 @llvm.ctlz.i64(i64 range(i64 1, 0) %.lcssa.sink.i.i, i1 true)
  %.037.i.i = xor i64 %30, 63
  %.neg59.i.i = sub i64 %.039.i.i, %.0.i.i.i
  %.neg57.i.i = sub nsw i64 %.037.i.i, %.sink.i.i.i
  %31 = shl i64 %.neg59.i.i, 32
  %32 = shl nsw i64 %.neg57.i.i, 26
  %33 = getelementptr i8, ptr %4, i64 %31
  %34 = getelementptr i8, ptr %33, i64 %32
  %35 = ptrtoint ptr %34 to i64
  %36 = load i64, ptr getelementptr inbounds nuw (i8, ptr @_mi_heap_main, i64 2856), align 8, !tbaa !32
  %37 = xor i64 %36, %35
  %38 = getelementptr inbounds nuw i8, ptr %34, i64 320
  %39 = load i64, ptr %38, align 64, !tbaa !38
  %.not50.i.i = icmp eq i64 %37, %39
  br i1 %.not50.i.i, label %40, label %mi_is_valid_pointer.exit, !prof !3

40:                                               ; preds = %29
  %41 = getelementptr i8, ptr %34, i64 328
  %.val.i.i = load i64, ptr %41, align 8, !tbaa !41
  %42 = shl i64 %.val.i.i, 16
  %43 = getelementptr inbounds nuw i8, ptr %34, i64 %42
  %.not51.i.i = icmp ugt ptr %43, %0
  br label %mi_is_valid_pointer.exit

mi_is_valid_pointer.exit:                         ; preds = %1, %6, %15, %20, %28, %29, %40
  %.0.i.i = phi i1 [ false, %1 ], [ true, %6 ], [ false, %15 ], [ false, %20 ], [ false, %29 ], [ %.not51.i.i, %40 ], [ false, %28 ]
  ret i1 %.0.i.i
}